target datalayout = "e-m:e-p270:32:32-p271:32:32-p272:64:64-i64:64-i128:128-f80:128-n8:16:32:64-S128"
target triple = "x86_64-pc-linux-gnu"

%struct.ARKBandPrecDataRec = type { i64, i64, i64, ptr, ptr, ptr, ptr, ptr, i64, ptr }
%struct.ARKLsMemRec = type { i32, i32, i32, ptr, ptr, i32, i32, double, double, ptr, ptr, ptr, ptr, ptr, ptr, ptr, i64, double, i64, i64, i64, i64, i64, i64, i64, i64, i64, double, ptr, ptr, ptr, ptr, i32, ptr, ptr, ptr, ptr, i32, ptr, ptr, i32 }

@.str = private unnamed_addr constant [123 x i8] c"generated/home/dtcxzyw/WorkSpace/Projects/compilers/llvm-opt-benchmark/bench/sundials/sundials/src/arkode/arkode_bandpre.c\00", align 1
@.str.4 = private unnamed_addr constant [68 x i8] c"Band preconditioner memory is NULL. ARKBandPrecInit must be called.\00", align 1
@__func__.ARKBandPrecGetNumRhsEvals = private unnamed_addr constant [26 x i8] c"ARKBandPrecGetNumRhsEvals\00", align 1

; Function Attrs: nounwind uwtable
define i32 @ARKBandPrecGetNumRhsEvals(ptr noundef %0, ptr noundef %1) #0 {
  %3 = alloca i32, align 4
  %4 = alloca ptr, align 8
  %5 = alloca ptr, align 8
  %6 = alloca ptr, align 8
  %7 = alloca ptr, align 8
  %8 = alloca ptr, align 8
  %9 = alloca i32, align 4
  %10 = alloca i32, align 4
  store ptr %0, ptr %4, align 8, !tbaa !3
  store ptr %1, ptr %5, align 8, !tbaa !53
  call void @llvm.lifetime.start.p0(i64 8, ptr %6) #6
  call void @llvm.lifetime.start.p0(i64 8, ptr %7) #6
  call void @llvm.lifetime.start.p0(i64 8, ptr %8) #6
  call void @llvm.lifetime.start.p0(i64 4, ptr %9) #6
  %11 = load ptr, ptr %4, align 8, !tbaa !3
  %12 = call i32 @arkLs_AccessARKODELMem(ptr noundef %11, ptr noundef @__func__.ARKBandPrecGetNumRhsEvals, ptr noundef %6, ptr noundef %7)
  store i32 %12, ptr %9, align 4, !tbaa !9
  %13 = load i32, ptr %9, align 4, !tbaa !9
  %14 = icmp ne i32 %13, 0
  br i1 %14, label %15, label %17

15:                                               ; preds = %2
  %16 = load i32, ptr %9, align 4, !tbaa !9
  store i32 %16, ptr %3, align 4
  store i32 1, ptr %10, align 4
  br label %32

17:                                               ; preds = %2
  %18 = load ptr, ptr %7, align 8, !tbaa !43
  %19 = getelementptr inbounds nuw %struct.ARKLsMemRec, ptr %18, i32 0, i32 31
  %20 = load ptr, ptr %19, align 8, !tbaa !47
  %21 = icmp eq ptr %20, null
  br i1 %21, label %22, label %24

22:                                               ; preds = %17
  %23 = load ptr, ptr %6, align 8, !tbaa !11
  call void (ptr, i32, i32, ptr, ptr, ptr, ...) @arkProcessError(ptr noundef %23, i32 noundef -5, i32 noundef 271, ptr noundef @__func__.ARKBandPrecGetNumRhsEvals, ptr noundef @.str, ptr noundef @.str.4)
  store i32 -5, ptr %3, align 4
  store i32 1, ptr %10, align 4
  br label %32

24:                                               ; preds = %17
  %25 = load ptr, ptr %7, align 8, !tbaa !43
  %26 = getelementptr inbounds nuw %struct.ARKLsMemRec, ptr %25, i32 0, i32 31
  %27 = load ptr, ptr %26, align 8, !tbaa !47
  store ptr %27, ptr %8, align 8, !tbaa !27
  %28 = load ptr, ptr %8, align 8, !tbaa !27
  %29 = getelementptr inbounds nuw %struct.ARKBandPrecDataRec, ptr %28, i32 0, i32 8
  %30 = load i64, ptr %29, align 8, !tbaa !36
  %31 = load ptr, ptr %5, align 8, !tbaa !53
  store i64 %30, ptr %31, align 8, !tbaa !7
  store i32 0, ptr %3, align 4
  store i32 1, ptr %10, align 4
  br label %32

32:                                               ; preds = %24, %22, %15
  call void @llvm.lifetime.end.p0(i64 4, ptr %9) #6
  call void @llvm.lifetime.end.p0(i64 8, ptr %8) #6
  call void @llvm.lifetime.end.p0(i64 8, ptr %7) #6
  call void @llvm.lifetime.end.p0(i64 8, ptr %6) #6
  %33 = load i32, ptr %3, align 4
  ret i32 %33
}